; ModuleID = '32/377.c'
source_filename = "32/377.c"
target datalayout = "e-m:e-p270:32:32-p271:32:32-p272:64:64-i64:64-f80:128-n8:16:32:64-S128"
target triple = "x86_64-pc-linux-gnu"

@.str = private unnamed_addr constant [3 x i8] c"%d\00", align 1
@.str.1 = private unnamed_addr constant [3 x i8] c"%s\00", align 1
@.str.2 = private unnamed_addr constant [4 x i8] c"%s\0A\00", align 1

; Function Attrs: noinline nounwind uwtable
define dso_local void @main() #0 {
  %1 = alloca i32, align 4
  %2 = alloca i32, align 4
  %3 = alloca i32, align 4
  %4 = alloca i8**, align 8
  %5 = alloca i8**, align 8
  %6 = alloca i32, align 4
  %7 = alloca i32, align 4
  %8 = call i32 (i8*, ...) @__isoc99_scanf(i8* getelementptr inbounds ([3 x i8], [3 x i8]* @.str, i64 0, i64 0), i32* %1)
  %9 = load i32, i32* %1, align 4
  %10 = sext i32 %9 to i64
  %11 = mul i64 %10, 8
  %12 = call noalias i8* @malloc(i64 %11) #4
  %13 = bitcast i8* %12 to i8**
  store i8** %13, i8*** %4, align 8
  %14 = load i32, i32* %1, align 4
  %15 = sext i32 %14 to i64
  %16 = mul i64 %15, 8
  %17 = call noalias i8* @malloc(i64 %16) #4
  %18 = bitcast i8* %17 to i8**
  store i8** %18, i8*** %5, align 8
  store i32 0, i32* %3, align 4
  br label %19

19:                                               ; preds = %46, %0
  %20 = load i32, i32* %3, align 4
  %21 = load i32, i32* %1, align 4
  %22 = icmp slt i32 %20, %21
  br i1 %22, label %23, label %49

23:                                               ; preds = %19
  %24 = call noalias i8* @malloc(i64 101) #4
  %25 = load i8**, i8*** %4, align 8
  %26 = load i32, i32* %3, align 4
  %27 = sext i32 %26 to i64
  %28 = getelementptr inbounds i8*, i8** %25, i64 %27
  store i8* %24, i8** %28, align 8
  %29 = call noalias i8* @malloc(i64 101) #4
  %30 = load i8**, i8*** %5, align 8
  %31 = load i32, i32* %3, align 4
  %32 = sext i32 %31 to i64
  %33 = getelementptr inbounds i8*, i8** %30, i64 %32
  store i8* %29, i8** %33, align 8
  %34 = load i8**, i8*** %4, align 8
  %35 = load i32, i32* %3, align 4
  %36 = sext i32 %35 to i64
  %37 = getelementptr inbounds i8*, i8** %34, i64 %36
  %38 = load i8*, i8** %37, align 8
  %39 = call i32 (i8*, ...) @__isoc99_scanf(i8* getelementptr inbounds ([3 x i8], [3 x i8]* @.str.1, i64 0, i64 0), i8* %38)
  %40 = load i8**, i8*** %5, align 8
  %41 = load i32, i32* %3, align 4
  %42 = sext i32 %41 to i64
  %43 = getelementptr inbounds i8*, i8** %40, i64 %42
  %44 = load i8*, i8** %43, align 8
  %45 = call i32 (i8*, ...) @__isoc99_scanf(i8* getelementptr inbounds ([3 x i8], [3 x i8]* @.str.1, i64 0, i64 0), i8* %44)
  br label %46

46:                                               ; preds = %23
  %47 = load i32, i32* %3, align 4
  %48 = add nsw i32 %47, 1
  store i32 %48, i32* %3, align 4
  br label %19

49:                                               ; preds = %19
  store i32 0, i32* %3, align 4
  br label %50

50:                                               ; preds = %273, %49
  %51 = load i32, i32* %3, align 4
  %52 = load i32, i32* %1, align 4
  %53 = icmp slt i32 %51, %52
  br i1 %53, label %54, label %276

54:                                               ; preds = %50
  %55 = load i8**, i8*** %4, align 8
  %56 = load i32, i32* %3, align 4
  %57 = sext i32 %56 to i64
  %58 = getelementptr inbounds i8*, i8** %55, i64 %57
  %59 = load i8*, i8** %58, align 8
  %60 = call i64 @strlen(i8* %59) #5
  %61 = trunc i64 %60 to i32
  store i32 %61, i32* %6, align 4
  %62 = load i8**, i8*** %5, align 8
  %63 = load i32, i32* %3, align 4
  %64 = sext i32 %63 to i64
  %65 = getelementptr inbounds i8*, i8** %62, i64 %64
  %66 = load i8*, i8** %65, align 8
  %67 = call i64 @strlen(i8* %66) #5
  %68 = trunc i64 %67 to i32
  store i32 %68, i32* %7, align 4
  %69 = load i32, i32* %6, align 4
  %70 = sub nsw i32 %69, 1
  store i32 %70, i32* %2, align 4
  br label %71

71:                                               ; preds = %215, %54
  %72 = load i32, i32* %2, align 4
  %73 = load i32, i32* %6, align 4
  %74 = load i32, i32* %7, align 4
  %75 = sub nsw i32 %73, %74
  %76 = icmp sge i32 %72, %75
  br i1 %76, label %77, label %218

77:                                               ; preds = %71
  %78 = load i8**, i8*** %4, align 8
  %79 = load i32, i32* %3, align 4
  %80 = sext i32 %79 to i64
  %81 = getelementptr inbounds i8*, i8** %78, i64 %80
  %82 = load i8*, i8** %81, align 8
  %83 = load i32, i32* %2, align 4
  %84 = sext i32 %83 to i64
  %85 = getelementptr inbounds i8, i8* %82, i64 %84
  %86 = load i8, i8* %85, align 1
  %87 = sext i8 %86 to i32
  %88 = load i8**, i8*** %5, align 8
  %89 = load i32, i32* %3, align 4
  %90 = sext i32 %89 to i64
  %91 = getelementptr inbounds i8*, i8** %88, i64 %90
  %92 = load i8*, i8** %91, align 8
  %93 = load i32, i32* %7, align 4
  %94 = load i32, i32* %6, align 4
  %95 = sub nsw i32 %93, %94
  %96 = load i32, i32* %2, align 4
  %97 = add nsw i32 %95, %96
  %98 = sext i32 %97 to i64
  %99 = getelementptr inbounds i8, i8* %92, i64 %98
  %100 = load i8, i8* %99, align 1
  %101 = sext i8 %100 to i32
  %102 = icmp slt i32 %87, %101
  br i1 %102, label %103, label %151

103:                                              ; preds = %77
  %104 = load i8**, i8*** %4, align 8
  %105 = load i32, i32* %3, align 4
  %106 = sext i32 %105 to i64
  %107 = getelementptr inbounds i8*, i8** %104, i64 %106
  %108 = load i8*, i8** %107, align 8
  %109 = load i32, i32* %2, align 4
  %110 = sext i32 %109 to i64
  %111 = getelementptr inbounds i8, i8* %108, i64 %110
  %112 = load i8, i8* %111, align 1
  %113 = sext i8 %112 to i32
  %114 = add nsw i32 10, %113
  %115 = load i8**, i8*** %5, align 8
  %116 = load i32, i32* %3, align 4
  %117 = sext i32 %116 to i64
  %118 = getelementptr inbounds i8*, i8** %115, i64 %117
  %119 = load i8*, i8** %118, align 8
  %120 = load i32, i32* %7, align 4
  %121 = load i32, i32* %6, align 4
  %122 = sub nsw i32 %120, %121
  %123 = load i32, i32* %2, align 4
  %124 = add nsw i32 %122, %123
  %125 = sext i32 %124 to i64
  %126 = getelementptr inbounds i8, i8* %119, i64 %125
  %127 = load i8, i8* %126, align 1
  %128 = sext i8 %127 to i32
  %129 = sub nsw i32 %114, %128
  %130 = add nsw i32 %129, 48
  %131 = trunc i32 %130 to i8
  %132 = load i8**, i8*** %4, align 8
  %133 = load i32, i32* %3, align 4
  %134 = sext i32 %133 to i64
  %135 = getelementptr inbounds i8*, i8** %132, i64 %134
  %136 = load i8*, i8** %135, align 8
  %137 = load i32, i32* %2, align 4
  %138 = sext i32 %137 to i64
  %139 = getelementptr inbounds i8, i8* %136, i64 %138
  store i8 %131, i8* %139, align 1
  %140 = load i8**, i8*** %4, align 8
  %141 = load i32, i32* %3, align 4
  %142 = sext i32 %141 to i64
  %143 = getelementptr inbounds i8*, i8** %140, i64 %142
  %144 = load i8*, i8** %143, align 8
  %145 = load i32, i32* %2, align 4
  %146 = sub nsw i32 %145, 1
  %147 = sext i32 %146 to i64
  %148 = getelementptr inbounds i8, i8* %144, i64 %147
  %149 = load i8, i8* %148, align 1
  %150 = add i8 %149, -1
  store i8 %150, i8* %148, align 1
  br label %214

151:                                              ; preds = %77
  %152 = load i8**, i8*** %4, align 8
  %153 = load i32, i32* %3, align 4
  %154 = sext i32 %153 to i64
  %155 = getelementptr inbounds i8*, i8** %152, i64 %154
  %156 = load i8*, i8** %155, align 8
  %157 = load i32, i32* %2, align 4
  %158 = sext i32 %157 to i64
  %159 = getelementptr inbounds i8, i8* %156, i64 %158
  %160 = load i8, i8* %159, align 1
  %161 = sext i8 %160 to i32
  %162 = load i8**, i8*** %5, align 8
  %163 = load i32, i32* %3, align 4
  %164 = sext i32 %163 to i64
  %165 = getelementptr inbounds i8*, i8** %162, i64 %164
  %166 = load i8*, i8** %165, align 8
  %167 = load i32, i32* %7, align 4
  %168 = load i32, i32* %6, align 4
  %169 = sub nsw i32 %167, %168
  %170 = load i32, i32* %2, align 4
  %171 = add nsw i32 %169, %170
  %172 = sext i32 %171 to i64
  %173 = getelementptr inbounds i8, i8* %166, i64 %172
  %174 = load i8, i8* %173, align 1
  %175 = sext i8 %174 to i32
  %176 = icmp sge i32 %161, %175
  br i1 %176, label %177, label %213

177:                                              ; preds = %151
  %178 = load i8**, i8*** %4, align 8
  %179 = load i32, i32* %3, align 4
  %180 = sext i32 %179 to i64
  %181 = getelementptr inbounds i8*, i8** %178, i64 %180
  %182 = load i8*, i8** %181, align 8
  %183 = load i32, i32* %2, align 4
  %184 = sext i32 %183 to i64
  %185 = getelementptr inbounds i8, i8* %182, i64 %184
  %186 = load i8, i8* %185, align 1
  %187 = sext i8 %186 to i32
  %188 = load i8**, i8*** %5, align 8
  %189 = load i32, i32* %3, align 4
  %190 = sext i32 %189 to i64
  %191 = getelementptr inbounds i8*, i8** %188, i64 %190
  %192 = load i8*, i8** %191, align 8
  %193 = load i32, i32* %7, align 4
  %194 = load i32, i32* %6, align 4
  %195 = sub nsw i32 %193, %194
  %196 = load i32, i32* %2, align 4
  %197 = add nsw i32 %195, %196
  %198 = sext i32 %197 to i64
  %199 = getelementptr inbounds i8, i8* %192, i64 %198
  %200 = load i8, i8* %199, align 1
  %201 = sext i8 %200 to i32
  %202 = sub nsw i32 %187, %201
  %203 = add nsw i32 %202, 48
  %204 = trunc i32 %203 to i8
  %205 = load i8**, i8*** %4, align 8
  %206 = load i32, i32* %3, align 4
  %207 = sext i32 %206 to i64
  %208 = getelementptr inbounds i8*, i8** %205, i64 %207
  %209 = load i8*, i8** %208, align 8
  %210 = load i32, i32* %2, align 4
  %211 = sext i32 %210 to i64
  %212 = getelementptr inbounds i8, i8* %209, i64 %211
  store i8 %204, i8* %212, align 1
  br label %213

213:                                              ; preds = %177, %151
  br label %214

214:                                              ; preds = %213, %103
  br label %215

215:                                              ; preds = %214
  %216 = load i32, i32* %2, align 4
  %217 = add nsw i32 %216, -1
  store i32 %217, i32* %2, align 4
  br label %71

218:                                              ; preds = %71
  %219 = load i32, i32* %6, align 4
  %220 = sub nsw i32 %219, 1
  store i32 %220, i32* %2, align 4
  br label %221

221:                                              ; preds = %263, %218
  %222 = load i32, i32* %2, align 4
  %223 = icmp sge i32 %222, 0
  br i1 %223, label %224, label %266

224:                                              ; preds = %221
  %225 = load i8**, i8*** %4, align 8
  %226 = load i32, i32* %3, align 4
  %227 = sext i32 %226 to i64
  %228 = getelementptr inbounds i8*, i8** %225, i64 %227
  %229 = load i8*, i8** %228, align 8
  %230 = load i32, i32* %2, align 4
  %231 = sext i32 %230 to i64
  %232 = getelementptr inbounds i8, i8* %229, i64 %231
  %233 = load i8, i8* %232, align 1
  %234 = sext i8 %233 to i32
  %235 = icmp slt i32 %234, 48
  br i1 %235, label %236, label %262

236:                                              ; preds = %224
  %237 = load i8**, i8*** %4, align 8
  %238 = load i32, i32* %3, align 4
  %239 = sext i32 %238 to i64
  %240 = getelementptr inbounds i8*, i8** %237, i64 %239
  %241 = load i8*, i8** %240, align 8
  %242 = load i32, i32* %2, align 4
  %243 = sext i32 %242 to i64
  %244 = getelementptr inbounds i8, i8* %241, i64 %243
  %245 = load i8, i8* %244, align 1
  %246 = sext i8 %245 to i32
  %247 = add nsw i32 %246, 10
  %248 = trunc i32 %247 to i8
  store i8 %248, i8* %244, align 1
  %249 = load i8**, i8*** %4, align 8
  %250 = load i32, i32* %3, align 4
  %251 = sext i32 %250 to i64
  %252 = getelementptr inbounds i8*, i8** %249, i64 %251
  %253 = load i8*, i8** %252, align 8
  %254 = load i32, i32* %2, align 4
  %255 = sub nsw i32 %254, 1
  %256 = sext i32 %255 to i64
  %257 = getelementptr inbounds i8, i8* %253, i64 %256
  %258 = load i8, i8* %257, align 1
  %259 = sext i8 %258 to i32
  %260 = sub nsw i32 %259, 1
  %261 = trunc i32 %260 to i8
  store i8 %261, i8* %257, align 1
  br label %262

262:                                              ; preds = %236, %224
  br label %263

263:                                              ; preds = %262
  %264 = load i32, i32* %2, align 4
  %265 = add nsw i32 %264, -1
  store i32 %265, i32* %2, align 4
  br label %221

266:                                              ; preds = %221
  %267 = load i8**, i8*** %4, align 8
  %268 = load i32, i32* %3, align 4
  %269 = sext i32 %268 to i64
  %270 = getelementptr inbounds i8*, i8** %267, i64 %269
  %271 = load i8*, i8** %270, align 8
  %272 = call i32 (i8*, ...) @printf(i8* getelementptr inbounds ([4 x i8], [4 x i8]* @.str.2, i64 0, i64 0), i8* %271)
  br label %273

273:                                              ; preds = %266
  %274 = load i32, i32* %3, align 4
  %275 = add nsw i32 %274, 1
  store i32 %275, i32* %3, align 4
  br label %50

276:                                              ; preds = %50
  ret void
}

declare dso_local i32 @__isoc99_scanf(i8*, ...) #1

; Function Attrs: nounwind
declare dso_local noalias i8* @malloc(i64) #2

; Function Attrs: nounwind readonly
declare dso_local i64 @strlen(i8*) #3

declare dso_local i32 @printf(i8*, ...) #1


!llvm.module.flags = !{!0}
!llvm.ident = !{!1}

!0 = !{i32 1, !"wchar_size", i32 4}
!1 = !{!"clang version 10.0.0-4ubuntu1 "}
